; ModuleID = '51/40.c'
source_filename = "51/40.c"
target datalayout = "e-m:e-p270:32:32-p271:32:32-p272:64:64-i64:64-f80:128-n8:16:32:64-S128"
target triple = "x86_64-pc-linux-gnu"

@.str = private unnamed_addr constant [3 x i8] c"%d\00", align 1
@.str.1 = private unnamed_addr constant [3 x i8] c"%s\00", align 1
@.str.2 = private unnamed_addr constant [3 x i8] c"NO\00", align 1
@.str.3 = private unnamed_addr constant [4 x i8] c"%d\0A\00", align 1
@.str.4 = private unnamed_addr constant [4 x i8] c"%s\0A\00", align 1

; Function Attrs: noinline nounwind uwtable
define dso_local i32 @main() #0 {
  %1 = alloca i32, align 4
  %2 = alloca i32, align 4
  %3 = alloca i32, align 4
  %4 = alloca i32, align 4
  %5 = alloca i32, align 4
  %6 = alloca i32, align 4
  %7 = alloca i32, align 4
  %8 = alloca i32, align 4
  %9 = alloca i8, align 1
  %10 = alloca [1000 x i8], align 16
  %11 = alloca [1000 x [1000 x i8]], align 16
  %12 = alloca [1000 x i32], align 16
  store i32 0, i32* %1, align 4
  %13 = call i32 (i8*, ...) @__isoc99_scanf(i8* getelementptr inbounds ([3 x i8], [3 x i8]* @.str, i64 0, i64 0), i32* %6)
  %14 = getelementptr inbounds [1000 x i8], [1000 x i8]* %10, i64 0, i64 0
  %15 = call i32 (i8*, ...) @__isoc99_scanf(i8* getelementptr inbounds ([3 x i8], [3 x i8]* @.str.1, i64 0, i64 0), i8* %14)
  %16 = getelementptr inbounds [1000 x i8], [1000 x i8]* %10, i64 0, i64 0
  %17 = call i64 @strlen(i8* %16) #4
  %18 = trunc i64 %17 to i32
  store i32 %18, i32* %7, align 4
  store i32 0, i32* %3, align 4
  %19 = getelementptr inbounds [1000 x [1000 x i8]], [1000 x [1000 x i8]]* %11, i64 0, i64 0
  %20 = bitcast [1000 x i8]* %19 to i8*
  call void @llvm.memset.p0i8.i64(i8* align 16 %20, i8 0, i64 1000000, i1 false)
  %21 = load i32, i32* %7, align 4
  %22 = load i32, i32* %6, align 4
  %23 = sub nsw i32 %21, %22
  %24 = add nsw i32 %23, 1
  store i32 %24, i32* %8, align 4
  store i32 0, i32* %2, align 4
  br label %25

25:                                               ; preds = %53, %0
  %26 = load i32, i32* %2, align 4
  %27 = load i32, i32* %7, align 4
  %28 = load i32, i32* %6, align 4
  %29 = sub nsw i32 %27, %28
  %30 = icmp sle i32 %26, %29
  br i1 %30, label %31, label %56

31:                                               ; preds = %25
  store i32 0, i32* %3, align 4
  br label %32

32:                                               ; preds = %49, %31
  %33 = load i32, i32* %3, align 4
  %34 = load i32, i32* %6, align 4
  %35 = icmp slt i32 %33, %34
  br i1 %35, label %36, label %52

36:                                               ; preds = %32
  %37 = load i32, i32* %2, align 4
  %38 = load i32, i32* %3, align 4
  %39 = add nsw i32 %37, %38
  %40 = sext i32 %39 to i64
  %41 = getelementptr inbounds [1000 x i8], [1000 x i8]* %10, i64 0, i64 %40
  %42 = load i8, i8* %41, align 1
  %43 = load i32, i32* %2, align 4
  %44 = sext i32 %43 to i64
  %45 = getelementptr inbounds [1000 x [1000 x i8]], [1000 x [1000 x i8]]* %11, i64 0, i64 %44
  %46 = load i32, i32* %3, align 4
  %47 = sext i32 %46 to i64
  %48 = getelementptr inbounds [1000 x i8], [1000 x i8]* %45, i64 0, i64 %47
  store i8 %42, i8* %48, align 1
  br label %49

49:                                               ; preds = %36
  %50 = load i32, i32* %3, align 4
  %51 = add nsw i32 %50, 1
  store i32 %51, i32* %3, align 4
  br label %32

52:                                               ; preds = %32
  br label %53

53:                                               ; preds = %52
  %54 = load i32, i32* %2, align 4
  %55 = add nsw i32 %54, 1
  store i32 %55, i32* %2, align 4
  br label %25

56:                                               ; preds = %25
  %57 = getelementptr inbounds [1000 x i32], [1000 x i32]* %12, i64 0, i64 0
  %58 = bitcast i32* %57 to i8*
  call void @llvm.memset.p0i8.i64(i8* align 16 %58, i8 0, i64 4000, i1 false)
  store i32 0, i32* %2, align 4
  br label %59

59:                                               ; preds = %99, %56
  %60 = load i32, i32* %2, align 4
  %61 = load i32, i32* %8, align 4
  %62 = icmp slt i32 %60, %61
  br i1 %62, label %63, label %102

63:                                               ; preds = %59
  store i32 0, i32* %4, align 4
  store i32 0, i32* %3, align 4
  br label %64

64:                                               ; preds = %86, %63
  %65 = load i32, i32* %3, align 4
  %66 = load i32, i32* %2, align 4
  %67 = icmp slt i32 %65, %66
  br i1 %67, label %68, label %89

68:                                               ; preds = %64
  %69 = load i32, i32* %2, align 4
  %70 = sext i32 %69 to i64
  %71 = getelementptr inbounds [1000 x [1000 x i8]], [1000 x [1000 x i8]]* %11, i64 0, i64 %70
  %72 = getelementptr inbounds [1000 x i8], [1000 x i8]* %71, i64 0, i64 0
  %73 = load i32, i32* %3, align 4
  %74 = sext i32 %73 to i64
  %75 = getelementptr inbounds [1000 x [1000 x i8]], [1000 x [1000 x i8]]* %11, i64 0, i64 %74
  %76 = getelementptr inbounds [1000 x i8], [1000 x i8]* %75, i64 0, i64 0
  %77 = call i32 @strcmp(i8* %72, i8* %76) #4
  %78 = icmp eq i32 %77, 0
  br i1 %78, label %79, label %85

79:                                               ; preds = %68
  %80 = load i32, i32* %3, align 4
  %81 = sext i32 %80 to i64
  %82 = getelementptr inbounds [1000 x i32], [1000 x i32]* %12, i64 0, i64 %81
  %83 = load i32, i32* %82, align 4
  %84 = add nsw i32 %83, 1
  store i32 %84, i32* %82, align 4
  store i32 1, i32* %4, align 4
  br label %89

85:                                               ; preds = %68
  br label %86

86:                                               ; preds = %85
  %87 = load i32, i32* %3, align 4
  %88 = add nsw i32 %87, 1
  store i32 %88, i32* %3, align 4
  br label %64

89:                                               ; preds = %79, %64
  %90 = load i32, i32* %4, align 4
  %91 = icmp eq i32 %90, 0
  br i1 %91, label %92, label %98

92:                                               ; preds = %89
  %93 = load i32, i32* %2, align 4
  %94 = sext i32 %93 to i64
  %95 = getelementptr inbounds [1000 x i32], [1000 x i32]* %12, i64 0, i64 %94
  %96 = load i32, i32* %95, align 4
  %97 = add nsw i32 %96, 1
  store i32 %97, i32* %95, align 4
  br label %98

98:                                               ; preds = %92, %89
  br label %99

99:                                               ; preds = %98
  %100 = load i32, i32* %2, align 4
  %101 = add nsw i32 %100, 1
  store i32 %101, i32* %2, align 4
  br label %59

102:                                              ; preds = %59
  store i32 0, i32* %5, align 4
  store i32 0, i32* %2, align 4
  br label %103

103:                                              ; preds = %120, %102
  %104 = load i32, i32* %2, align 4
  %105 = load i32, i32* %8, align 4
  %106 = icmp slt i32 %104, %105
  br i1 %106, label %107, label %123

107:                                              ; preds = %103
  %108 = load i32, i32* %5, align 4
  %109 = load i32, i32* %2, align 4
  %110 = sext i32 %109 to i64
  %111 = getelementptr inbounds [1000 x i32], [1000 x i32]* %12, i64 0, i64 %110
  %112 = load i32, i32* %111, align 4
  %113 = icmp slt i32 %108, %112
  br i1 %113, label %114, label %119

114:                                              ; preds = %107
  %115 = load i32, i32* %2, align 4
  %116 = sext i32 %115 to i64
  %117 = getelementptr inbounds [1000 x i32], [1000 x i32]* %12, i64 0, i64 %116
  %118 = load i32, i32* %117, align 4
  store i32 %118, i32* %5, align 4
  br label %119

119:                                              ; preds = %114, %107
  br label %120

120:                                              ; preds = %119
  %121 = load i32, i32* %2, align 4
  %122 = add nsw i32 %121, 1
  store i32 %122, i32* %2, align 4
  br label %103

123:                                              ; preds = %103
  %124 = load i32, i32* %5, align 4
  %125 = icmp eq i32 %124, 1
  br i1 %125, label %126, label %128

126:                                              ; preds = %123
  %127 = call i32 (i8*, ...) @printf(i8* getelementptr inbounds ([3 x i8], [3 x i8]* @.str.2, i64 0, i64 0))
  br label %153

128:                                              ; preds = %123
  %129 = load i32, i32* %5, align 4
  %130 = call i32 (i8*, ...) @printf(i8* getelementptr inbounds ([4 x i8], [4 x i8]* @.str.3, i64 0, i64 0), i32 %129)
  store i32 0, i32* %2, align 4
  br label %131

131:                                              ; preds = %149, %128
  %132 = load i32, i32* %2, align 4
  %133 = load i32, i32* %8, align 4
  %134 = icmp slt i32 %132, %133
  br i1 %134, label %135, label %152

135:                                              ; preds = %131
  %136 = load i32, i32* %2, align 4
  %137 = sext i32 %136 to i64
  %138 = getelementptr inbounds [1000 x i32], [1000 x i32]* %12, i64 0, i64 %137
  %139 = load i32, i32* %138, align 4
  %140 = load i32, i32* %5, align 4
  %141 = icmp eq i32 %139, %140
  br i1 %141, label %142, label %148

142:                                              ; preds = %135
  %143 = load i32, i32* %2, align 4
  %144 = sext i32 %143 to i64
  %145 = getelementptr inbounds [1000 x [1000 x i8]], [1000 x [1000 x i8]]* %11, i64 0, i64 %144
  %146 = getelementptr inbounds [1000 x i8], [1000 x i8]* %145, i64 0, i64 0
  %147 = call i32 (i8*, ...) @printf(i8* getelementptr inbounds ([4 x i8], [4 x i8]* @.str.4, i64 0, i64 0), i8* %146)
  br label %148

148:                                              ; preds = %142, %135
  br label %149

149:                                              ; preds = %148
  %150 = load i32, i32* %2, align 4
  %151 = add nsw i32 %150, 1
  store i32 %151, i32* %2, align 4
  br label %131

152:                                              ; preds = %131
  br label %153

153:                                              ; preds = %152, %126
  %154 = load i32, i32* %1, align 4
  ret i32 %154
}

declare dso_local i32 @__isoc99_scanf(i8*, ...) #1

; Function Attrs: nounwind readonly
declare dso_local i64 @strlen(i8*) #2

; Function Attrs: argmemonly nounwind willreturn
declare void @llvm.memset.p0i8.i64(i8* nocapture writeonly, i8, i64, i1 immarg) #3

; Function Attrs: nounwind readonly
declare dso_local i32 @strcmp(i8*, i8*) #2

declare dso_local i32 @printf(i8*, ...) #1


!llvm.module.flags = !{!0}
!llvm.ident = !{!1}

!0 = !{i32 1, !"wchar_size", i32 4}
!1 = !{!"clang version 10.0.0-4ubuntu1 "}
