; ModuleID = 'source-C-CXX/50/40.c'
source_filename = "source-C-CXX/50/40.c"
target datalayout = "e-m:e-p270:32:32-p271:32:32-p272:64:64-i64:64-f80:128-n8:16:32:64-S128"
target triple = "x86_64-pc-linux-gnu"

@.str = private unnamed_addr constant [3 x i8] c"%d\00", align 1
@.str.1 = private unnamed_addr constant [3 x i8] c"%s\00", align 1
@.str.2 = private unnamed_addr constant [3 x i8] c"NO\00", align 1
@.str.3 = private unnamed_addr constant [4 x i8] c"%d\0A\00", align 1

; Function Attrs: nofree nounwind sspstrong uwtable
define dso_local i32 @main() local_unnamed_addr #0 {
  %1 = alloca i32, align 4
  %2 = alloca [1000 x i8], align 16
  %3 = alloca [1000 x [1000 x i8]], align 16
  %4 = alloca [1000 x i32], align 16
  %5 = bitcast i32* %1 to i8*
  call void @llvm.lifetime.start.p0i8(i64 4, i8* nonnull %5) #8
  %6 = getelementptr inbounds [1000 x i8], [1000 x i8]* %2, i64 0, i64 0
  call void @llvm.lifetime.start.p0i8(i64 1000, i8* nonnull %6) #8
  %7 = getelementptr inbounds [1000 x [1000 x i8]], [1000 x [1000 x i8]]* %3, i64 0, i64 0, i64 0
  call void @llvm.lifetime.start.p0i8(i64 1000000, i8* nonnull %7) #8
  %8 = bitcast [1000 x i32]* %4 to i8*
  call void @llvm.lifetime.start.p0i8(i64 4000, i8* nonnull %8) #8
  %9 = call i32 (i8*, ...) @__isoc99_scanf(i8* getelementptr inbounds ([3 x i8], [3 x i8]* @.str, i64 0, i64 0), i32* nonnull %1)
  %10 = call i32 (i8*, ...) @__isoc99_scanf(i8* getelementptr inbounds ([3 x i8], [3 x i8]* @.str.1, i64 0, i64 0), i8* nonnull %6)
  %11 = call i64 @strlen(i8* noundef nonnull %6) #9
  %12 = trunc i64 %11 to i32
  call void @llvm.memset.p0i8.i64(i8* noundef nonnull align 16 dereferenceable(1000000) %7, i8 0, i64 1000000, i1 false)
  %13 = load i32, i32* %1, align 4, !tbaa !5
  %14 = icmp sgt i32 %13, %12
  br i1 %14, label %163, label %15

15:                                               ; preds = %0
  %16 = icmp sgt i32 %13, 0
  br i1 %16, label %18, label %17

17:                                               ; preds = %15
  call void @llvm.memset.p0i8.i64(i8* noundef nonnull align 16 dereferenceable(4000) %8, i8 0, i64 4000, i1 false)
  br label %57

18:                                               ; preds = %15
  %19 = zext i32 %13 to i64
  %20 = add i32 %12, 1
  %21 = sub i32 %20, %13
  %22 = zext i32 %21 to i64
  %23 = add nsw i64 %22, -1
  %24 = and i64 %22, 3
  %25 = icmp ult i64 %23, 3
  br i1 %25, label %45, label %26

26:                                               ; preds = %18
  %27 = and i64 %22, 4294967292
  br label %28

28:                                               ; preds = %28, %26
  %29 = phi i64 [ 0, %26 ], [ %42, %28 ]
  %30 = phi i64 [ %27, %26 ], [ %43, %28 ]
  %31 = getelementptr [1000 x [1000 x i8]], [1000 x [1000 x i8]]* %3, i64 0, i64 %29, i64 0
  %32 = getelementptr [1000 x i8], [1000 x i8]* %2, i64 0, i64 %29
  call void @llvm.memcpy.p0i8.p0i8.i64(i8* align 16 %31, i8* align 4 %32, i64 %19, i1 false)
  %33 = or i64 %29, 1
  %34 = getelementptr [1000 x [1000 x i8]], [1000 x [1000 x i8]]* %3, i64 0, i64 %33, i64 0
  %35 = getelementptr [1000 x i8], [1000 x i8]* %2, i64 0, i64 %33
  call void @llvm.memcpy.p0i8.p0i8.i64(i8* align 8 %34, i8* align 1 %35, i64 %19, i1 false)
  %36 = or i64 %29, 2
  %37 = getelementptr [1000 x [1000 x i8]], [1000 x [1000 x i8]]* %3, i64 0, i64 %36, i64 0
  %38 = getelementptr [1000 x i8], [1000 x i8]* %2, i64 0, i64 %36
  call void @llvm.memcpy.p0i8.p0i8.i64(i8* align 16 %37, i8* align 2 %38, i64 %19, i1 false)
  %39 = or i64 %29, 3
  %40 = getelementptr [1000 x [1000 x i8]], [1000 x [1000 x i8]]* %3, i64 0, i64 %39, i64 0
  %41 = getelementptr [1000 x i8], [1000 x i8]* %2, i64 0, i64 %39
  call void @llvm.memcpy.p0i8.p0i8.i64(i8* align 8 %40, i8* align 1 %41, i64 %19, i1 false)
  %42 = add nuw nsw i64 %29, 4
  %43 = add i64 %30, -4
  %44 = icmp eq i64 %43, 0
  br i1 %44, label %45, label %28, !llvm.loop !9

45:                                               ; preds = %28, %18
  %46 = phi i64 [ 0, %18 ], [ %42, %28 ]
  %47 = icmp eq i64 %24, 0
  br i1 %47, label %56, label %48

48:                                               ; preds = %45, %48
  %49 = phi i64 [ %53, %48 ], [ %46, %45 ]
  %50 = phi i64 [ %54, %48 ], [ %24, %45 ]
  %51 = getelementptr [1000 x [1000 x i8]], [1000 x [1000 x i8]]* %3, i64 0, i64 %49, i64 0
  %52 = getelementptr [1000 x i8], [1000 x i8]* %2, i64 0, i64 %49
  call void @llvm.memcpy.p0i8.p0i8.i64(i8* align 8 %51, i8* align 1 %52, i64 %19, i1 false)
  %53 = add nuw nsw i64 %49, 1
  %54 = add i64 %50, -1
  %55 = icmp eq i64 %54, 0
  br i1 %55, label %56, label %48, !llvm.loop !11

56:                                               ; preds = %48, %45
  call void @llvm.memset.p0i8.i64(i8* noundef nonnull align 16 dereferenceable(4000) %8, i8 0, i64 4000, i1 false)
  br i1 %14, label %163, label %57

57:                                               ; preds = %17, %56
  %58 = add i32 %12, 1
  %59 = sub i32 %58, %13
  %60 = zext i32 %59 to i64
  br label %61

61:                                               ; preds = %57, %147
  %62 = phi i64 [ 0, %57 ], [ %152, %147 ]
  %63 = getelementptr inbounds [1000 x [1000 x i8]], [1000 x [1000 x i8]]* %3, i64 0, i64 %62, i64 0
  %64 = icmp eq i64 %62, 0
  br i1 %64, label %147, label %137

65:                                               ; preds = %147
  br i1 %14, label %163, label %66

66:                                               ; preds = %65
  %67 = add i32 %12, 1
  %68 = sub i32 %67, %13
  %69 = zext i32 %68 to i64
  %70 = icmp ult i32 %68, 8
  br i1 %70, label %134, label %71

71:                                               ; preds = %66
  %72 = and i64 %69, 4294967288
  %73 = add nsw i64 %72, -8
  %74 = lshr exact i64 %73, 3
  %75 = add nuw nsw i64 %74, 1
  %76 = and i64 %75, 1
  %77 = icmp eq i64 %73, 0
  br i1 %77, label %109, label %78

78:                                               ; preds = %71
  %79 = and i64 %75, 4611686018427387902
  br label %80

80:                                               ; preds = %80, %78
  %81 = phi i64 [ 0, %78 ], [ %106, %80 ]
  %82 = phi <4 x i32> [ zeroinitializer, %78 ], [ %104, %80 ]
  %83 = phi <4 x i32> [ zeroinitializer, %78 ], [ %105, %80 ]
  %84 = phi i64 [ %79, %78 ], [ %107, %80 ]
  %85 = getelementptr inbounds [1000 x i32], [1000 x i32]* %4, i64 0, i64 %81
  %86 = bitcast i32* %85 to <4 x i32>*
  %87 = load <4 x i32>, <4 x i32>* %86, align 16, !tbaa !5
  %88 = getelementptr inbounds i32, i32* %85, i64 4
  %89 = bitcast i32* %88 to <4 x i32>*
  %90 = load <4 x i32>, <4 x i32>* %89, align 16, !tbaa !5
  %91 = icmp slt <4 x i32> %82, %87
  %92 = icmp slt <4 x i32> %83, %90
  %93 = select <4 x i1> %91, <4 x i32> %87, <4 x i32> %82
  %94 = select <4 x i1> %92, <4 x i32> %90, <4 x i32> %83
  %95 = or i64 %81, 8
  %96 = getelementptr inbounds [1000 x i32], [1000 x i32]* %4, i64 0, i64 %95
  %97 = bitcast i32* %96 to <4 x i32>*
  %98 = load <4 x i32>, <4 x i32>* %97, align 16, !tbaa !5
  %99 = getelementptr inbounds i32, i32* %96, i64 4
  %100 = bitcast i32* %99 to <4 x i32>*
  %101 = load <4 x i32>, <4 x i32>* %100, align 16, !tbaa !5
  %102 = icmp slt <4 x i32> %93, %98
  %103 = icmp slt <4 x i32> %94, %101
  %104 = select <4 x i1> %102, <4 x i32> %98, <4 x i32> %93
  %105 = select <4 x i1> %103, <4 x i32> %101, <4 x i32> %94
  %106 = add nuw i64 %81, 16
  %107 = add i64 %84, -2
  %108 = icmp eq i64 %107, 0
  br i1 %108, label %109, label %80, !llvm.loop !13

109:                                              ; preds = %80, %71
  %110 = phi <4 x i32> [ undef, %71 ], [ %104, %80 ]
  %111 = phi <4 x i32> [ undef, %71 ], [ %105, %80 ]
  %112 = phi i64 [ 0, %71 ], [ %106, %80 ]
  %113 = phi <4 x i32> [ zeroinitializer, %71 ], [ %104, %80 ]
  %114 = phi <4 x i32> [ zeroinitializer, %71 ], [ %105, %80 ]
  %115 = icmp eq i64 %76, 0
  br i1 %115, label %127, label %116

116:                                              ; preds = %109
  %117 = getelementptr inbounds [1000 x i32], [1000 x i32]* %4, i64 0, i64 %112
  %118 = bitcast i32* %117 to <4 x i32>*
  %119 = load <4 x i32>, <4 x i32>* %118, align 16, !tbaa !5
  %120 = getelementptr inbounds i32, i32* %117, i64 4
  %121 = bitcast i32* %120 to <4 x i32>*
  %122 = load <4 x i32>, <4 x i32>* %121, align 16, !tbaa !5
  %123 = icmp slt <4 x i32> %114, %122
  %124 = select <4 x i1> %123, <4 x i32> %122, <4 x i32> %114
  %125 = icmp slt <4 x i32> %113, %119
  %126 = select <4 x i1> %125, <4 x i32> %119, <4 x i32> %113
  br label %127

127:                                              ; preds = %109, %116
  %128 = phi <4 x i32> [ %110, %109 ], [ %126, %116 ]
  %129 = phi <4 x i32> [ %111, %109 ], [ %124, %116 ]
  %130 = icmp sgt <4 x i32> %128, %129
  %131 = select <4 x i1> %130, <4 x i32> %128, <4 x i32> %129
  %132 = call i32 @llvm.vector.reduce.smax.v4i32(<4 x i32> %131)
  %133 = icmp eq i64 %72, %69
  br i1 %133, label %165, label %134

134:                                              ; preds = %66, %127
  %135 = phi i64 [ 0, %66 ], [ %72, %127 ]
  %136 = phi i32 [ 0, %66 ], [ %132, %127 ]
  br label %154

137:                                              ; preds = %61, %144
  %138 = phi i64 [ %145, %144 ], [ 0, %61 ]
  %139 = getelementptr inbounds [1000 x [1000 x i8]], [1000 x [1000 x i8]]* %3, i64 0, i64 %138, i64 0
  %140 = call i32 @strcmp(i8* noundef nonnull %63, i8* noundef nonnull %139) #9
  %141 = icmp eq i32 %140, 0
  br i1 %141, label %142, label %144

142:                                              ; preds = %137
  %143 = and i64 %138, 4294967295
  br label %147

144:                                              ; preds = %137
  %145 = add nuw nsw i64 %138, 1
  %146 = icmp eq i64 %145, %62
  br i1 %146, label %147, label %137, !llvm.loop !15

147:                                              ; preds = %144, %61, %142
  %148 = phi i64 [ %143, %142 ], [ %62, %61 ], [ %62, %144 ]
  %149 = getelementptr inbounds [1000 x i32], [1000 x i32]* %4, i64 0, i64 %148
  %150 = load i32, i32* %149, align 4, !tbaa !5
  %151 = add nsw i32 %150, 1
  store i32 %151, i32* %149, align 4, !tbaa !5
  %152 = add nuw nsw i64 %62, 1
  %153 = icmp eq i64 %152, %60
  br i1 %153, label %65, label %61, !llvm.loop !16

154:                                              ; preds = %134, %154
  %155 = phi i64 [ %161, %154 ], [ %135, %134 ]
  %156 = phi i32 [ %160, %154 ], [ %136, %134 ]
  %157 = getelementptr inbounds [1000 x i32], [1000 x i32]* %4, i64 0, i64 %155
  %158 = load i32, i32* %157, align 4, !tbaa !5
  %159 = icmp slt i32 %156, %158
  %160 = select i1 %159, i32 %158, i32 %156
  %161 = add nuw nsw i64 %155, 1
  %162 = icmp eq i64 %161, %69
  br i1 %162, label %165, label %154, !llvm.loop !17

163:                                              ; preds = %0, %56, %65
  %164 = call i32 (i8*, ...) @printf(i8* nonnull dereferenceable(1) getelementptr inbounds ([4 x i8], [4 x i8]* @.str.3, i64 0, i64 0), i32 0)
  br label %187

165:                                              ; preds = %154, %127
  %166 = phi i32 [ %132, %127 ], [ %160, %154 ]
  %167 = icmp eq i32 %166, 1
  br i1 %167, label %168, label %170

168:                                              ; preds = %165
  %169 = call i32 (i8*, ...) @printf(i8* nonnull dereferenceable(1) getelementptr inbounds ([3 x i8], [3 x i8]* @.str.2, i64 0, i64 0))
  br label %187

170:                                              ; preds = %165
  %171 = call i32 (i8*, ...) @printf(i8* nonnull dereferenceable(1) getelementptr inbounds ([4 x i8], [4 x i8]* @.str.3, i64 0, i64 0), i32 %166)
  br i1 %14, label %187, label %172

172:                                              ; preds = %170
  %173 = add i32 %12, 1
  %174 = sub i32 %173, %13
  %175 = zext i32 %174 to i64
  br label %176

176:                                              ; preds = %172, %184
  %177 = phi i64 [ 0, %172 ], [ %185, %184 ]
  %178 = getelementptr inbounds [1000 x i32], [1000 x i32]* %4, i64 0, i64 %177
  %179 = load i32, i32* %178, align 4, !tbaa !5
  %180 = icmp eq i32 %179, %166
  br i1 %180, label %181, label %184

181:                                              ; preds = %176
  %182 = getelementptr inbounds [1000 x [1000 x i8]], [1000 x [1000 x i8]]* %3, i64 0, i64 %177, i64 0
  %183 = call i32 @puts(i8* nonnull %182)
  br label %184

184:                                              ; preds = %176, %181
  %185 = add nuw nsw i64 %177, 1
  %186 = icmp eq i64 %185, %175
  br i1 %186, label %187, label %176, !llvm.loop !19

187:                                              ; preds = %184, %163, %170, %168
  call void @llvm.lifetime.end.p0i8(i64 4000, i8* nonnull %8) #8
  call void @llvm.lifetime.end.p0i8(i64 1000000, i8* nonnull %7) #8
  call void @llvm.lifetime.end.p0i8(i64 1000, i8* nonnull %6) #8
  call void @llvm.lifetime.end.p0i8(i64 4, i8* nonnull %5) #8
  ret i32 0
}

; Function Attrs: argmemonly mustprogress nofree nosync nounwind willreturn
declare void @llvm.lifetime.start.p0i8(i64 immarg, i8* nocapture) #1

; Function Attrs: nofree nounwind
declare noundef i32 @__isoc99_scanf(i8* nocapture noundef readonly, ...) local_unnamed_addr #2

; Function Attrs: argmemonly mustprogress nofree nounwind readonly willreturn
declare i64 @strlen(i8* nocapture) local_unnamed_addr #3

; Function Attrs: argmemonly mustprogress nofree nounwind willreturn writeonly
declare void @llvm.memset.p0i8.i64(i8* nocapture writeonly, i8, i64, i1 immarg) #4

; Function Attrs: argmemonly mustprogress nofree nounwind readonly willreturn
declare i32 @strcmp(i8* nocapture, i8* nocapture) local_unnamed_addr #3

; Function Attrs: nofree nounwind
declare noundef i32 @printf(i8* nocapture noundef readonly, ...) local_unnamed_addr #2

; Function Attrs: argmemonly mustprogress nofree nosync nounwind willreturn
declare void @llvm.lifetime.end.p0i8(i64 immarg, i8* nocapture) #1

; Function Attrs: nofree nounwind
declare noundef i32 @puts(i8* nocapture noundef readonly) local_unnamed_addr #5

; Function Attrs: argmemonly nofree nounwind willreturn
declare void @llvm.memcpy.p0i8.p0i8.i64(i8* noalias nocapture writeonly, i8* noalias nocapture readonly, i64, i1 immarg) #6

; Function Attrs: nofree nosync nounwind readnone willreturn
declare i32 @llvm.vector.reduce.smax.v4i32(<4 x i32>) #7


!llvm.module.flags = !{!0, !1, !2, !3}
!llvm.ident = !{!4}

!0 = !{i32 1, !"wchar_size", i32 4}
!1 = !{i32 7, !"PIC Level", i32 2}
!2 = !{i32 7, !"PIE Level", i32 2}
!3 = !{i32 7, !"uwtable", i32 1}
!4 = !{!"clang version 13.0.0"}
!5 = !{!6, !6, i64 0}
!6 = !{!"int", !7, i64 0}
!7 = !{!"omnipotent char", !8, i64 0}
!8 = !{!"Simple C/C++ TBAA"}
!9 = distinct !{!9, !10}
!10 = !{!"llvm.loop.mustprogress"}
!11 = distinct !{!11, !12}
!12 = !{!"llvm.loop.unroll.disable"}
!13 = distinct !{!13, !10, !14}
!14 = !{!"llvm.loop.isvectorized", i32 1}
!15 = distinct !{!15, !10}
!16 = distinct !{!16, !10}
!17 = distinct !{!17, !10, !18, !14}
!18 = !{!"llvm.loop.unroll.runtime.disable"}
!19 = distinct !{!19, !10}
